(dp0
S'cookies'
p1
(dp2
S'wxloadtime'
p3
S'1498787269'
p4
sS'webwx_data_ticket'
p5
S'gSdo1ARiMUmKMclYQUiVTyE4'
p6
sS'wxuin'
p7
S'179015374'
p8
sS'login_frequency'
p9
S'2'
p10
sS'MM_WX_NOTIFY_STATE'
p11
S'1'
p12
sS'MM_WX_SOUND_STATE'
p13
g12
sS'webwx_auth_ticket'
p14
S'CIsBELKsz7gDGoAB4Nrm4wI+quJB5AOKOLbhWbHw4xqYyPqNbgEedv26UyNvWc4gV179a6RdCFNy4+8veu7qd6ZQzeHMQSfWvmGbtrW6I/gQI2v/1R1i5O4XDJm89Gc9YUKOpreSukVy9frUVOFuOs/C25OQAMmNFk5QWtHNOr4N+49nZakozvT4//k='
p15
sS'last_wxuin'
p16
S'179015374'
p17
sS'webwxuvid'
p18
S'f7c4546508bde97a324dbb5b9a8fecf5d2b4273c015430f8540027b75d1d1ea2221402c52952b290546f62d8901f49ec'
p19
sS'wxpluginkey'
p20
S'1498787242'
p21
sS'wxsid'
p22
S'RVsmCo8nHq/Uj3OP'
p23
sS'mm_lang'
p24
S'zh_CN'
p25
ssS'version'
p26
S'1.2.32'
p27
sS'storage'
p28
(dp29
S'userName'
p30
V@98aa8db610026b20936b6d98054569f5a111c745db3cd8dbb81ffe13f46f003c
p31
sS'lastInputUserName'
p32
NsS'memberList'
p33
(lp34
(dp35
S'UserName'
p36
g31
sS'City'
p37
S''
p38
sS'DisplayName'
p39
g38
sS'UniFriend'
p40
I0
sS'MemberList'
p41
(lp42
sS'PYQuanPin'
p43
V
p44
sS'RemarkPYInitial'
p45
g44
sS'Sex'
p46
I0
sS'AppAccountFlag'
p47
I0
sS'VerifyFlag'
p48
I0
sS'Province'
p49
g38
sS'KeyWord'
p50
g38
sS'RemarkName'
p51
g44
sS'PYInitial'
p52
g44
sS'ChatRoomId'
p53
I0
sS'HideInputBarFlag'
p54
I0
sVHeadImgFlag
p55
I1
sS'EncryChatRoomId'
p56
g38
sS'AttrStatus'
p57
I0
sVWebWxPluginSwitch
p58
I0
sS'SnsFlag'
p59
I0
sS'MemberCount'
p60
I0
sS'OwnerUin'
p61
I0
sS'Alias'
p62
g38
sS'Signature'
p63
g44
sS'ContactFlag'
p64
I0
sS'NickName'
p65
Vrobot
p66
sS'RemarkPYQuanPin'
p67
g44
sS'HeadImgUrl'
p68
V/cgi-bin/mmwebwx-bin/webwxgeticon?seq=628311589&username=@98aa8db610026b20936b6d98054569f5a111c745db3cd8dbb81ffe13f46f003c&skey=@crypt_a5e0eb9a_393040d4a58ee62bcbd91307da1b7f9d
p69
sS'Uin'
p70
I179015374
sS'StarFriend'
p71
I0
sS'Statues'
p72
I0
sa(dp73
VUserName
p74
V@52c90a9bb1dcdb61278b79d357a4490fb7239d03c9d488419afd842b7fcac192
p75
sVCity
p76
V\u5409\u5b89
p77
sVDisplayName
p78
g44
sVUniFriend
p79
I0
sVMemberList
p80
(lp81
sVPYQuanPin
p82
Vtaxue
p83
sVRemarkPYInitial
p84
g44
sVUin
p85
I0
sVAppAccountFlag
p86
I0
sVVerifyFlag
p87
I0
sVProvince
p88
V\u6c5f\u897f
p89
sVKeyWord
p90
g44
sVRemarkName
p91
g44
sVPYInitial
p92
VTX
p93
sVChatRoomId
p94
I0
sVIsOwner
p95
I0
sVHideInputBarFlag
p96
I0
sVEncryChatRoomId
p97
g44
sVAttrStatus
p98
I67345021
sVSnsFlag
p99
I49
sVMemberCount
p100
I0
sVOwnerUin
p101
I0
sVAlias
p102
g44
sVSignature
p103
V\u5f03\u8f66\u800c\u9003\uff0c\u5446\u840c\u5f52\u6765<span class="emoji emoji1f63b"></span>
p104
sVContactFlag
p105
I3
sVNickName
p106
V\u8e0f\u96ea
p107
sVRemarkPYQuanPin
p108
g44
sVHeadImgUrl
p109
V/cgi-bin/mmwebwx-bin/webwxgeticon?seq=641160958&username=@52c90a9bb1dcdb61278b79d357a4490fb7239d03c9d488419afd842b7fcac192&skey=@crypt_a5e0eb9a_393040d4a58ee62bcbd91307da1b7f9d
p110
sVSex
p111
I1
sVStarFriend
p112
I0
sVStatues
p113
I0
sasS'chatroomList'
p114
(lp115
(dp116
VUserName
p117
V@@bdd9a5da3c64995549fadf07d320bc79896476d5d720f7c226aa6bb68bd52abe
p118
sVCity
p119
g44
sVDisplayName
p120
g44
sVUniFriend
p121
I0
sS'self'
p122
(dp123
g36
g31
sg37
g38
sg39
g38
sg40
I0
sg61
I0
sg41
(lp124
sg43
g44
sg45
g44
sg70
I179015374
sg47
I0
sg48
I0
sg49
g38
sg50
g38
sg51
g44
sg52
g44
sg53
I0
sg54
I0
sg55
I1
sg56
g38
sg57
I0
sg59
I0
sg60
I0
sg58
I0
sg62
g38
sg63
g44
sg64
I0
sg65
g66
sg67
g44
sg68
g69
sg46
I0
sg71
I0
sg72
I0
ssVMemberList
p125
(lp126
sVPYQuanPin
p127
g44
sVRemarkPYInitial
p128
g44
sVSex
p129
I0
sVAppAccountFlag
p130
I0
sVVerifyFlag
p131
I0
sVProvince
p132
g44
sVKeyWord
p133
g44
sVRemarkName
p134
g44
sVPYInitial
p135
g44
sVIsOwner
p136
I0
sVChatRoomId
p137
I0
sVHideInputBarFlag
p138
I0
sVEncryChatRoomId
p139
g44
sVAttrStatus
p140
I0
sVSnsFlag
p141
I0
sVMemberCount
p142
I3
sVOwnerUin
p143
I0
sVAlias
p144
g44
sVSignature
p145
g44
sVContactFlag
p146
I0
sVNickName
p147
Vstock
p148
sVRemarkPYQuanPin
p149
g44
sVHeadImgUrl
p150
V/cgi-bin/mmwebwx-bin/webwxgetheadimg?seq=0&username=@@bdd9a5da3c64995549fadf07d320bc79896476d5d720f7c226aa6bb68bd52abe&skey=@crypt_a5e0eb9a_393040d4a58ee62bcbd91307da1b7f9d
p151
sVUin
p152
I0
sVStarFriend
p153
I0
sVStatues
p154
I1
sS'isAdmin'
p155
NsasS'nickName'
p156
g66
sS'mpList'
p157
(lp158
ssS'loginInfo'
p159
(dp160
S'SyncKey'
p161
(dp162
VCount
p163
I4
sVList
p164
(lp165
(dp166
VVal
p167
I641160964
sVKey
p168
I1
sa(dp169
VVal
p170
I641160977
sVKey
p171
I2
sa(dp172
VVal
p173
I641160973
sVKey
p174
I3
sa(dp175
VVal
p176
I1498787242
sVKey
p177
I1000
sassS'syncUrl'
p178
S'https://webpush.wx2.qq.com/cgi-bin/mmwebwx-bin'
p179
sS'skey'
p180
V@crypt_a5e0eb9a_393040d4a58ee62bcbd91307da1b7f9d
p181
sS'wxuin'
p182
V179015374
p183
sS'synckey'
p184
S'1_641160964|2_641160977|3_641160973|1000_1498787242'
p185
sS'url'
p186
Vhttps://wx2.qq.com/cgi-bin/mmwebwx-bin
p187
sS'pass_ticket'
p188
VRwUmCMROV6IcibhhInQipWztTrZCcyeyy6VKFqxmaS0%3D
p189
sS'wxsid'
p190
VRVsmCo8nHq/Uj3OP
p191
sS'InviteStartCount'
p192
I40
sS'deviceid'
p193
S'e454597286525657'
p194
sS'fileUrl'
p195
S'https://file.wx2.qq.com/cgi-bin/mmwebwx-bin'
p196
sS'BaseRequest'
p197
(dp198
g70
g183
sS'Skey'
p199
g181
sS'DeviceID'
p200
g189
sS'Sid'
p201
g191
ssS'User'
p202
g35
ss.