(dp0
S'cookies'
p1
(dp2
S'wxloadtime'
p3
S'1501572896'
p4
sS'webwx_data_ticket'
p5
S'gSchWgHgmOd6KgrIPSUU/oY1'
p6
sS'wxuin'
p7
S'179015374'
p8
sS'login_frequency'
p9
S'2'
p10
sS'MM_WX_NOTIFY_STATE'
p11
S'1'
p12
sS'MM_WX_SOUND_STATE'
p13
g12
sS'webwx_auth_ticket'
p14
S'CIsBEI6sy5sCGoABbuPshVpnuHO48RGzHuh3bbHw4xqYyPqNbgEedv26UyNvWc4gV179a6RdCFNy4+8veu7qd6ZQzeHMQSfWvmGbtrW6I/gQI2v/1R1i5O4XDJm89Gc9YUKOpreSukVy9frUVOFuOs/C25OQAMmNFk5QWtHNOr4N+49nZakozvT4//k='
p15
sS'last_wxuin'
p16
S'179015374'
p17
sS'webwxuvid'
p18
S'f7c4546508bde97a324dbb5b9a8fecf5d2b4273c015430f8540027b75d1d1ea2221402c52952b290546f62d8901f49ec'
p19
sS'wxpluginkey'
p20
S'1498787269'
p21
sS'wxsid'
p22
S'+yPmi354KGqMK/BC'
p23
sS'mm_lang'
p24
S'zh_CN'
p25
ssS'version'
p26
S'1.2.32'
p27
sS'storage'
p28
(dp29
S'userName'
p30
V@9eba6848b6fd08d8843492e52579b87ffd7870e36d66b238b7f11b24a11db035
p31
sS'lastInputUserName'
p32
NsS'memberList'
p33
(lp34
(dp35
S'UserName'
p36
g31
sS'City'
p37
S''
p38
sS'DisplayName'
p39
g38
sS'UniFriend'
p40
I0
sS'MemberList'
p41
(lp42
sS'PYQuanPin'
p43
V
p44
sS'RemarkPYInitial'
p45
g44
sS'Sex'
p46
I0
sS'AppAccountFlag'
p47
I0
sS'VerifyFlag'
p48
I0
sS'Province'
p49
g38
sS'KeyWord'
p50
g38
sS'RemarkName'
p51
g44
sS'PYInitial'
p52
g44
sS'ChatRoomId'
p53
I0
sS'HideInputBarFlag'
p54
I0
sVHeadImgFlag
p55
I1
sS'EncryChatRoomId'
p56
g38
sS'AttrStatus'
p57
I0
sVWebWxPluginSwitch
p58
I0
sS'SnsFlag'
p59
I0
sS'MemberCount'
p60
I0
sS'OwnerUin'
p61
I0
sS'Alias'
p62
g38
sS'Signature'
p63
g44
sS'ContactFlag'
p64
I0
sS'NickName'
p65
Vrobot
p66
sS'RemarkPYQuanPin'
p67
g44
sS'HeadImgUrl'
p68
V/cgi-bin/mmwebwx-bin/webwxgeticon?seq=1148988059&username=@9eba6848b6fd08d8843492e52579b87ffd7870e36d66b238b7f11b24a11db035&skey=@crypt_a5e0eb9a_a0c459fa0eb022716d0d567eab86c298
p69
sS'Uin'
p70
I179015374
sS'StarFriend'
p71
I0
sS'Statues'
p72
I0
sa(dp73
VUserName
p74
V@401c6a3ccb93a286ee6f690cb555e701a99e63023d9eae33102faac0bb91e947
p75
sVCity
p76
V\u5409\u5b89
p77
sVDisplayName
p78
g44
sVUniFriend
p79
I0
sVMemberList
p80
(lp81
sVPYQuanPin
p82
Vtaxue
p83
sVRemarkPYInitial
p84
g44
sVUin
p85
I0
sVAppAccountFlag
p86
I0
sVVerifyFlag
p87
I0
sVProvince
p88
V\u6c5f\u897f
p89
sVKeyWord
p90
g44
sVRemarkName
p91
g44
sVPYInitial
p92
VTX
p93
sVChatRoomId
p94
I0
sVIsOwner
p95
I0
sVHideInputBarFlag
p96
I0
sVEncryChatRoomId
p97
g44
sVAttrStatus
p98
I67345021
sVSnsFlag
p99
I49
sVMemberCount
p100
I0
sVOwnerUin
p101
I0
sVAlias
p102
g44
sVSignature
p103
V\u5f03\u8f66\u800c\u9003\uff0c\u5446\u840c\u5f52\u6765<span class="emoji emoji1f63b"></span>
p104
sVContactFlag
p105
I3
sVNickName
p106
V\u8e0f\u96ea
p107
sVRemarkPYQuanPin
p108
g44
sVHeadImgUrl
p109
V/cgi-bin/mmwebwx-bin/webwxgeticon?seq=641160958&username=@401c6a3ccb93a286ee6f690cb555e701a99e63023d9eae33102faac0bb91e947&skey=@crypt_a5e0eb9a_a0c459fa0eb022716d0d567eab86c298
p110
sVSex
p111
I1
sVStarFriend
p112
I0
sVStatues
p113
I0
sa(dp114
VUserName
p115
V@4974249dd8de6d9ab58bdbbaa16f39b10ea4711630ea20e8413d24d7c74caaa0
p116
sVCity
p117
V\u5357\u5f00
p118
sVDisplayName
p119
g44
sVUniFriend
p120
I0
sVMemberList
p121
(lp122
sVPYQuanPin
p123
Vjidai
p124
sVRemarkPYInitial
p125
g44
sVUin
p126
I0
sVAppAccountFlag
p127
I0
sVVerifyFlag
p128
I0
sVProvince
p129
V\u5929\u6d25
p130
sVKeyWord
p131
g44
sVRemarkName
p132
g44
sVPYInitial
p133
VJD
p134
sVChatRoomId
p135
I0
sVIsOwner
p136
I0
sVHideInputBarFlag
p137
I0
sVEncryChatRoomId
p138
g44
sVAttrStatus
p139
I135269
sVSnsFlag
p140
I17
sVMemberCount
p141
I0
sVOwnerUin
p142
I0
sVAlias
p143
g44
sVSignature
p144
V\u547d\u8fd0
p145
sVContactFlag
p146
I3
sVNickName
p147
V\u671f\u5f85
p148
sVRemarkPYQuanPin
p149
g44
sVHeadImgUrl
p150
V/cgi-bin/mmwebwx-bin/webwxgeticon?seq=641161011&username=@4974249dd8de6d9ab58bdbbaa16f39b10ea4711630ea20e8413d24d7c74caaa0&skey=@crypt_a5e0eb9a_a0c459fa0eb022716d0d567eab86c298
p151
sVSex
p152
I2
sVStarFriend
p153
I0
sVStatues
p154
I0
sasS'chatroomList'
p155
(lp156
sS'nickName'
p157
g66
sS'mpList'
p158
(lp159
ssS'loginInfo'
p160
(dp161
S'SyncKey'
p162
(dp163
VCount
p164
I4
sVList
p165
(lp166
(dp167
VVal
p168
I641162660
sVKey
p169
I1
sa(dp170
VVal
p171
I641162665
sVKey
p172
I2
sa(dp173
VVal
p174
I641161011
sVKey
p175
I3
sa(dp176
VVal
p177
I1501548481
sVKey
p178
I1000
sassS'syncUrl'
p179
S'https://webpush.wx2.qq.com/cgi-bin/mmwebwx-bin'
p180
sS'skey'
p181
V@crypt_a5e0eb9a_a0c459fa0eb022716d0d567eab86c298
p182
sS'wxuin'
p183
V179015374
p184
sS'synckey'
p185
S'1_641162660|2_641162665|3_641161011|1000_1501548481'
p186
sS'url'
p187
Vhttps://wx2.qq.com/cgi-bin/mmwebwx-bin
p188
sS'pass_ticket'
p189
V%2B2GW6EeMXha9RgBKYble3L4%2FFV0jZs3xxm54PaqccwM%3D
p190
sS'wxsid'
p191
V+yPmi354KGqMK/BC
p192
sS'User'
p193
g35
sS'InviteStartCount'
p194
I40
sS'fileUrl'
p195
S'https://file.wx2.qq.com/cgi-bin/mmwebwx-bin'
p196
sS'BaseRequest'
p197
(dp198
g70
g184
sS'Skey'
p199
g182
sS'DeviceID'
p200
g190
sS'Sid'
p201
g192
ssS'deviceid'
p202
S'e218476565965775'
p203
ss.